target datalayout = "e-m:e-p270:32:32-p271:32:32-p272:64:64-i64:64-i128:128-f80:128-n8:16:32:64-S128"
target triple = "x86_64-pc-linux-gnu"

%class.CFGElement = type { ptr, double }
%class.GrowableArrayBase = type { i32, i32 }
%class.GrowableArrayMetadata = type { i64 }
%class.CFGLoop = type { %class.CFGElement, i32, i32, ptr, ptr, ptr, %class.GrowableArray.13, %class.GrowableArray.16, double }
%class.GrowableArray.13 = type { %class.GrowableArrayWithAllocator.14, %class.GrowableArrayMetadata }
%class.GrowableArrayWithAllocator.14 = type { %class.GrowableArrayView.15 }
%class.GrowableArrayView.15 = type { %class.GrowableArrayBase, ptr }
%class.GrowableArray.16 = type { %class.GrowableArrayWithAllocator.17, %class.GrowableArrayMetadata }
%class.GrowableArrayWithAllocator.17 = type { %class.GrowableArrayView.18 }
%class.GrowableArrayView.18 = type { %class.GrowableArrayBase, ptr }

; Function Attrs: mustprogress nounwind uwtable
define hidden void @_ZN7CFGLoop15add_nested_loopEPS_(ptr noundef nonnull align 8 dereferenceable(104) %0, ptr noundef %1) #1 align 2 {
  %3 = alloca ptr, align 8
  %4 = alloca ptr, align 8
  %5 = alloca ptr, align 8
  store ptr %0, ptr %3, align 8
  store ptr %1, ptr %4, align 8
  %6 = load ptr, ptr %3, align 8
  %7 = load ptr, ptr %4, align 8
  %8 = getelementptr inbounds %class.CFGLoop, ptr %7, i32 0, i32 3
  store ptr %6, ptr %8, align 8
  %9 = getelementptr inbounds %class.CFGLoop, ptr %6, i32 0, i32 5
  %10 = load ptr, ptr %9, align 8
  store ptr %10, ptr %5, align 8
  %11 = load ptr, ptr %5, align 8
  %12 = icmp eq ptr %11, null
  br i1 %12, label %13, label %16

13:                                               ; preds = %2
  %14 = load ptr, ptr %4, align 8
  %15 = getelementptr inbounds %class.CFGLoop, ptr %6, i32 0, i32 5
  store ptr %14, ptr %15, align 8
  br label %30

16:                                               ; preds = %2
  br label %17

17:                                               ; preds = %22, %16
  %18 = load ptr, ptr %5, align 8
  %19 = getelementptr inbounds %class.CFGLoop, ptr %18, i32 0, i32 4
  %20 = load ptr, ptr %19, align 8
  %21 = icmp ne ptr %20, null
  br i1 %21, label %22, label %26

22:                                               ; preds = %17
  %23 = load ptr, ptr %5, align 8
  %24 = getelementptr inbounds %class.CFGLoop, ptr %23, i32 0, i32 4
  %25 = load ptr, ptr %24, align 8
  store ptr %25, ptr %5, align 8
  br label %17, !llvm.loop !72

26:                                               ; preds = %17
  %27 = load ptr, ptr %4, align 8
  %28 = load ptr, ptr %5, align 8
  %29 = getelementptr inbounds %class.CFGLoop, ptr %28, i32 0, i32 4
  store ptr %27, ptr %29, align 8
  br label %30

30:                                               ; preds = %26, %13
  ret void
}