; Function Attrs: mustprogress nofree norecurse nosync nounwind memory(readwrite, inaccessiblemem: none) uwtable
define hidden void @_ZN7CFGLoop15add_nested_loopEPS_(ptr noundef nonnull align 8 dereferenceable(104) %0, ptr noundef %1) local_unnamed_addr #6 align 2 {
  %3 = getelementptr inbounds i8, ptr %1, i64 24
  store ptr %0, ptr %3, align 8
  %4 = getelementptr inbounds i8, ptr %0, i64 40
  %5 = load ptr, ptr %4, align 8
  %6 = icmp eq ptr %5, null
  br i1 %6, label %11, label %.preheader

.preheader:                                       ; preds = %2, %.preheader
  %.0 = phi ptr [ %8, %.preheader ], [ %5, %2 ]
  %7 = getelementptr inbounds i8, ptr %.0, i64 32
  %8 = load ptr, ptr %7, align 8
  %.not = icmp eq ptr %8, null
  br i1 %.not, label %9, label %.preheader, !llvm.loop !63

9:                                                ; preds = %.preheader
  %10 = getelementptr inbounds i8, ptr %.0, i64 32
  br label %11

11:                                               ; preds = %2, %9
  %.sink = phi ptr [ %10, %9 ], [ %4, %2 ]
  store ptr %1, ptr %.sink, align 8
  ret void
}